target datalayout = "e-m:e-p270:32:32-p271:32:32-p272:64:64-i64:64-i128:128-f80:128-n8:16:32:64-S128"
target triple = "x86_64-pc-linux-gnu"

%struct.enum_val_t = type { ptr, ptr, i32 }
%struct._packet_info = type { ptr, ptr, i32, i32, %struct.nstime_t, %struct.nstime_t, %struct.nstime_t, i8, ptr, ptr, ptr, ptr, %struct._address, %struct._address, %struct._address, %struct._address, %struct._address, %struct._address, i32, ptr, i8, [3 x i8], %struct.anon, i32, i32, i32, i32, ptr, i8, ptr, ptr, i16, i16, i32, i32, i16, i32, i32, ptr, ptr, ptr, i8, i8, i16, i16, i16, i32, i16, i16, ptr, ptr, ptr, ptr, ptr, i32, i32 }
%struct.nstime_t = type { i64, i32 }
%struct._address = type { i32, i32, ptr, ptr }
%struct.anon = type { i8, [3 x i8] }
%struct._drda_pdu_info_t = type { i32, i32, i32, i32 }

@hf_drda_typdefnam = internal global i32 0, align 4

; Function Attrs: null_pointer_is_valid sspstrong uwtable
define internal i32 @dissect_drda_typdefnam(ptr noundef %0, ptr noundef %1, ptr noundef %2, ptr noundef %3) #0 {
  %5 = alloca ptr, align 8
  %6 = alloca ptr, align 8
  %7 = alloca ptr, align 8
  %8 = alloca ptr, align 8
  %9 = alloca ptr, align 8
  %10 = alloca ptr, align 8
  %11 = alloca i32, align 4
  %12 = alloca i32, align 4
  %13 = alloca i32, align 4
  store ptr %0, ptr %5, align 8
  store ptr %1, ptr %6, align 8
  store ptr %2, ptr %7, align 8
  store ptr %3, ptr %8, align 8
  call void @llvm.lifetime.start.p0(i64 8, ptr %9) #9
  %14 = load ptr, ptr %8, align 8
  store ptr %14, ptr %9, align 8
  call void @llvm.lifetime.start.p0(i64 8, ptr %10) #9
  %15 = load ptr, ptr %7, align 8
  %16 = load i32, ptr @hf_drda_typdefnam, align 4
  %17 = load ptr, ptr %5, align 8
  %18 = load ptr, ptr %5, align 8
  %19 = call i32 @tvb_reported_length(ptr noundef %18)
  %20 = load ptr, ptr %6, align 8
  %21 = getelementptr inbounds nuw %struct._packet_info, ptr %20, i32 0, i32 51
  %22 = load ptr, ptr %21, align 8
  %23 = call ptr @proto_tree_add_item_ret_string(ptr noundef %15, i32 noundef %16, ptr noundef %17, i32 noundef 0, i32 noundef %19, i32 noundef 2, ptr noundef %22, ptr noundef %10)
  call void @llvm.lifetime.start.p0(i64 4, ptr %11) #9
  store i32 0, ptr %11, align 4
  br label %24

24:                                               ; preds = %50, %4
  %25 = load i32, ptr %11, align 4
  %26 = sext i32 %25 to i64
  %27 = getelementptr [6 x %struct.enum_val_t], ptr @typdefnam_vals, i64 0, i64 %26
  %28 = getelementptr inbounds nuw %struct.enum_val_t, ptr %27, i32 0, i32 0
  %29 = load ptr, ptr %28, align 8
  %30 = icmp ne ptr %29, null
  br i1 %30, label %32, label %31

31:                                               ; preds = %24
  store i32 2, ptr %12, align 4
  br label %53

32:                                               ; preds = %24
  %33 = load i32, ptr %11, align 4
  %34 = sext i32 %33 to i64
  %35 = getelementptr [6 x %struct.enum_val_t], ptr @typdefnam_vals, i64 0, i64 %34
  %36 = getelementptr inbounds nuw %struct.enum_val_t, ptr %35, i32 0, i32 0
  %37 = load ptr, ptr %36, align 8
  %38 = load ptr, ptr %10, align 8
  %39 = call i32 @strcmp(ptr noundef %37, ptr noundef %38) #10
  %40 = icmp eq i32 %39, 0
  br i1 %40, label %41, label %49

41:                                               ; preds = %32
  %42 = load i32, ptr %11, align 4
  %43 = sext i32 %42 to i64
  %44 = getelementptr [6 x %struct.enum_val_t], ptr @typdefnam_vals, i64 0, i64 %43
  %45 = getelementptr inbounds nuw %struct.enum_val_t, ptr %44, i32 0, i32 2
  %46 = load i32, ptr %45, align 8
  %47 = load ptr, ptr %9, align 8
  %48 = getelementptr inbounds nuw %struct._drda_pdu_info_t, ptr %47, i32 0, i32 1
  store i32 %46, ptr %48, align 4
  store i32 2, ptr %12, align 4
  br label %53

49:                                               ; preds = %32
  br label %50

50:                                               ; preds = %49
  %51 = load i32, ptr %11, align 4
  %52 = add i32 %51, 1
  store i32 %52, ptr %11, align 4
  br label %24, !llvm.loop !10

53:                                               ; preds = %41, %31
  call void @llvm.lifetime.end.p0(i64 4, ptr %11) #9
  br label %54

54:                                               ; preds = %53
  %55 = load ptr, ptr %7, align 8
  %56 = load i32, ptr @hf_drda_typdefnam, align 4
  %57 = load ptr, ptr %5, align 8
  %58 = load ptr, ptr %5, align 8
  %59 = call i32 @tvb_reported_length(ptr noundef %58)
  %60 = load ptr, ptr %6, align 8
  %61 = getelementptr inbounds nuw %struct._packet_info, ptr %60, i32 0, i32 51
  %62 = load ptr, ptr %61, align 8
  %63 = call ptr @proto_tree_add_item_ret_string(ptr noundef %55, i32 noundef %56, ptr noundef %57, i32 noundef 0, i32 noundef %59, i32 noundef 96, ptr noundef %62, ptr noundef %10)
  call void @llvm.lifetime.start.p0(i64 4, ptr %13) #9
  store i32 0, ptr %13, align 4
  br label %64

64:                                               ; preds = %90, %54
  %65 = load i32, ptr %13, align 4
  %66 = sext i32 %65 to i64
  %67 = getelementptr [6 x %struct.enum_val_t], ptr @typdefnam_vals, i64 0, i64 %66
  %68 = getelementptr inbounds nuw %struct.enum_val_t, ptr %67, i32 0, i32 0
  %69 = load ptr, ptr %68, align 8
  %70 = icmp ne ptr %69, null
  br i1 %70, label %72, label %71

71:                                               ; preds = %64
  store i32 5, ptr %12, align 4
  br label %93

72:                                               ; preds = %64
  %73 = load i32, ptr %13, align 4
  %74 = sext i32 %73 to i64
  %75 = getelementptr [6 x %struct.enum_val_t], ptr @typdefnam_vals, i64 0, i64 %74
  %76 = getelementptr inbounds nuw %struct.enum_val_t, ptr %75, i32 0, i32 0
  %77 = load ptr, ptr %76, align 8
  %78 = load ptr, ptr %10, align 8
  %79 = call i32 @strcmp(ptr noundef %77, ptr noundef %78) #10
  %80 = icmp eq i32 %79, 0
  br i1 %80, label %81, label %89

81:                                               ; preds = %72
  %82 = load i32, ptr %13, align 4
  %83 = sext i32 %82 to i64
  %84 = getelementptr [6 x %struct.enum_val_t], ptr @typdefnam_vals, i64 0, i64 %83
  %85 = getelementptr inbounds nuw %struct.enum_val_t, ptr %84, i32 0, i32 2
  %86 = load i32, ptr %85, align 8
  %87 = load ptr, ptr %9, align 8
  %88 = getelementptr inbounds nuw %struct._drda_pdu_info_t, ptr %87, i32 0, i32 1
  store i32 %86, ptr %88, align 4
  store i32 5, ptr %12, align 4
  br label %93

89:                                               ; preds = %72
  br label %90

90:                                               ; preds = %89
  %91 = load i32, ptr %13, align 4
  %92 = add i32 %91, 1
  store i32 %92, ptr %13, align 4
  br label %64, !llvm.loop !11

93:                                               ; preds = %81, %71
  call void @llvm.lifetime.end.p0(i64 4, ptr %13) #9
  br label %94

94:                                               ; preds = %93
  %95 = load ptr, ptr %5, align 8
  %96 = call i32 @tvb_reported_length(ptr noundef %95)
  store i32 1, ptr %12, align 4
  call void @llvm.lifetime.end.p0(i64 8, ptr %10) #9
  call void @llvm.lifetime.end.p0(i64 8, ptr %9) #9
  ret i32 %96
}