; Function Attrs: null_pointer_is_valid sspstrong uwtable
define internal i32 @dissect_drda_typdefnam(ptr noundef %0, ptr noundef readonly captures(none) %1, ptr noundef %2, ptr noundef writeonly captures(none) %3) #0 {
  %5 = alloca ptr, align 8
  call void @llvm.lifetime.start.p0(i64 8, ptr nonnull %5) #8
  %6 = load i32, ptr @hf_drda_typdefnam, align 4
  %7 = tail call i32 @tvb_reported_length(ptr noundef %0)
  %8 = getelementptr inbounds nuw i8, ptr %1, i64 408
  %9 = load ptr, ptr %8, align 8
  %10 = call ptr @proto_tree_add_item_ret_string(ptr noundef %2, i32 noundef %6, ptr noundef %0, i32 noundef 0, i32 noundef %7, i32 noundef 2, ptr noundef %9, ptr noundef nonnull %5)
  %11 = load ptr, ptr %5, align 8
  %12 = call i32 @strcmp(ptr noundef nonnull dereferenceable(10) @.str.815, ptr noundef %11) #9
  %13 = icmp eq i32 %12, 0
  br i1 %13, label %._crit_edge, label %.lr.ph

.lr.ph:                                           ; preds = %4, %14
  %indvars.iv42 = phi i64 [ %indvars.iv.next, %14 ], [ 0, %4 ]
  %indvars.iv.next = add nuw nsw i64 %indvars.iv42, 1
  %exitcond = icmp eq i64 %indvars.iv.next, 5
  br i1 %exitcond, label %.loopexit23, label %14, !llvm.loop !10

14:                                               ; preds = %.lr.ph
  %15 = getelementptr [6 x %struct.enum_val_t], ptr @typdefnam_vals, i64 0, i64 %indvars.iv.next
  %16 = load ptr, ptr %15, align 8
  %17 = call i32 @strcmp(ptr noundef nonnull dereferenceable(1) %16, ptr noundef %11) #9
  %18 = icmp eq i32 %17, 0
  br i1 %18, label %._crit_edge, label %.lr.ph, !llvm.loop !10

._crit_edge:                                      ; preds = %14, %4
  %.lcssa40 = phi ptr [ @typdefnam_vals, %4 ], [ %15, %14 ]
  %19 = getelementptr inbounds nuw i8, ptr %.lcssa40, i64 16
  %20 = load i32, ptr %19, align 8
  %21 = getelementptr inbounds nuw i8, ptr %3, i64 4
  store i32 %20, ptr %21, align 4
  br label %.loopexit23

.loopexit23:                                      ; preds = %.lr.ph, %._crit_edge
  %22 = load i32, ptr @hf_drda_typdefnam, align 4
  %23 = call i32 @tvb_reported_length(ptr noundef %0)
  %24 = load ptr, ptr %8, align 8
  %25 = call ptr @proto_tree_add_item_ret_string(ptr noundef %2, i32 noundef %22, ptr noundef %0, i32 noundef 0, i32 noundef %23, i32 noundef 96, ptr noundef %24, ptr noundef nonnull %5)
  %26 = load ptr, ptr %5, align 8
  %27 = call i32 @strcmp(ptr noundef nonnull dereferenceable(10) @.str.815, ptr noundef %26) #9
  %28 = icmp eq i32 %27, 0
  br i1 %28, label %._crit_edge45, label %.lr.ph44

.lr.ph44:                                         ; preds = %.loopexit23, %29
  %indvars.iv3243 = phi i64 [ %indvars.iv.next33, %29 ], [ 0, %.loopexit23 ]
  %indvars.iv.next33 = add nuw nsw i64 %indvars.iv3243, 1
  %exitcond35 = icmp eq i64 %indvars.iv.next33, 5
  br i1 %exitcond35, label %.loopexit, label %29, !llvm.loop !11

29:                                               ; preds = %.lr.ph44
  %30 = getelementptr [6 x %struct.enum_val_t], ptr @typdefnam_vals, i64 0, i64 %indvars.iv.next33
  %31 = load ptr, ptr %30, align 8
  %32 = call i32 @strcmp(ptr noundef nonnull dereferenceable(1) %31, ptr noundef %26) #9
  %33 = icmp eq i32 %32, 0
  br i1 %33, label %._crit_edge45, label %.lr.ph44, !llvm.loop !11

._crit_edge45:                                    ; preds = %29, %.loopexit23
  %.lcssa = phi ptr [ @typdefnam_vals, %.loopexit23 ], [ %30, %29 ]
  %34 = getelementptr inbounds nuw i8, ptr %.lcssa, i64 16
  %35 = load i32, ptr %34, align 8
  %36 = getelementptr inbounds nuw i8, ptr %3, i64 4
  store i32 %35, ptr %36, align 4
  br label %.loopexit

.loopexit:                                        ; preds = %.lr.ph44, %._crit_edge45
  %37 = call i32 @tvb_reported_length(ptr noundef %0)
  call void @llvm.lifetime.end.p0(i64 8, ptr nonnull %5) #8
  ret i32 %37
}